target datalayout = "e-m:e-p270:32:32-p271:32:32-p272:64:64-i64:64-i128:128-f80:128-n8:16:32:64-S128"
target triple = "x86_64-pc-linux-gnu"

%struct.expert_field = type { i32, i32 }
%struct.nstime_t = type { i64, i32 }
%struct.bp_eid_t = type { ptr, i64, %struct._address, ptr, ptr, ptr }
%struct._address = type { i32, i32, ptr, ptr }
%struct._packet_info = type { ptr, ptr, i32, i32, %struct.nstime_t, %struct.nstime_t, %struct.nstime_t, i8, ptr, ptr, ptr, ptr, %struct._address, %struct._address, %struct._address, %struct._address, %struct._address, %struct._address, i32, ptr, i8, [3 x i8], %struct.anon, i32, i32, i32, i32, ptr, i8, ptr, ptr, i16, i16, i32, i32, i16, i32, i32, ptr, ptr, ptr, i8, i8, i16, i16, i16, i32, i16, i16, ptr, ptr, ptr, ptr, ptr, i32, i32 }
%struct.anon = type { i8, [3 x i8] }
%struct._proto_node = type { ptr, ptr, ptr, ptr, ptr, ptr, ptr }
%struct.field_info = type { ptr, i32, i32, i32, i32, i32, i32, ptr, ptr, ptr, i32, i32 }
%struct.wscbor_chunk_t = type { ptr, i32, i32, i32, ptr, ptr, i32, i8, i64 }

@.str = private unnamed_addr constant [29 x i8] c"%s:%u: failed assertion \22%s\22\00", align 1
@.str.1 = private unnamed_addr constant [30 x i8] c"epan/dissectors/packet-bpv7.c\00", align 1
@handle_cbor = internal global ptr null, align 8
@hf_eid_dtn_ssp_code = internal global i32 0, align 4
@hf_eid_dtn_ssp_text = internal global i32 0, align 4
@hf_eid_dtn_wkssp = internal global i32 0, align 4
@hf_eid_dtn_serv = internal global i32 0, align 4
@ei_eid_ssp_type_invalid = internal global %struct.expert_field zeroinitializer, align 4
@ei_eid_wkssp_unknown = internal global %struct.expert_field zeroinitializer, align 4
@.str.348 = private unnamed_addr constant [4 x i8] c"eid\00", align 1
@.str.349 = private unnamed_addr constant [5 x i8] c"none\00", align 1
@.str.350 = private unnamed_addr constant [7 x i8] c"dtn:%s\00", align 1

; Function Attrs: inlinehint nounwind null_pointer_is_valid sspstrong uwtable
define internal void @set_address(ptr noundef %0, i32 noundef %1, i32 noundef %2, ptr noundef %3) #4 {
  %5 = alloca ptr, align 8
  %6 = alloca i32, align 4
  %7 = alloca i32, align 4
  %8 = alloca ptr, align 8
  store ptr %0, ptr %5, align 8
  store i32 %1, ptr %6, align 4
  store i32 %2, ptr %7, align 4
  store ptr %3, ptr %8, align 8
  %9 = load i32, ptr %7, align 4
  %10 = icmp eq i32 %9, 0
  br i1 %10, label %11, label %14

11:                                               ; preds = %4
  br label %12

12:                                               ; preds = %11
  br label %13

13:                                               ; preds = %12
  br label %19

14:                                               ; preds = %4
  br label %15

15:                                               ; preds = %14
  br label %16

16:                                               ; preds = %15
  br label %17

17:                                               ; preds = %16
  br label %18

18:                                               ; preds = %17
  br label %19

19:                                               ; preds = %18, %13
  %20 = load i32, ptr %6, align 4
  %21 = load ptr, ptr %5, align 8
  %22 = getelementptr inbounds nuw %struct._address, ptr %21, i32 0, i32 0
  store i32 %20, ptr %22, align 8
  %23 = load i32, ptr %7, align 4
  %24 = load ptr, ptr %5, align 8
  %25 = getelementptr inbounds nuw %struct._address, ptr %24, i32 0, i32 1
  store i32 %23, ptr %25, align 4
  %26 = load ptr, ptr %8, align 8
  %27 = load ptr, ptr %5, align 8
  %28 = getelementptr inbounds nuw %struct._address, ptr %27, i32 0, i32 2
  store ptr %26, ptr %28, align 8
  %29 = load ptr, ptr %5, align 8
  %30 = getelementptr inbounds nuw %struct._address, ptr %29, i32 0, i32 3
  store ptr null, ptr %30, align 8
  ret void
}

; Function Attrs: inlinehint nounwind null_pointer_is_valid sspstrong uwtable
define internal void @proto_item_set_generated(ptr noundef %0) #4 {
  %2 = alloca ptr, align 8
  store ptr %0, ptr %2, align 8
  %3 = load ptr, ptr %2, align 8
  %4 = icmp ne ptr %3, null
  br i1 %4, label %5, label %24

5:                                                ; preds = %1
  br label %6

6:                                                ; preds = %5
  %7 = load ptr, ptr %2, align 8
  %8 = getelementptr inbounds nuw %struct._proto_node, ptr %7, i32 0, i32 5
  %9 = load ptr, ptr %8, align 8
  %10 = icmp ne ptr %9, null
  br i1 %10, label %11, label %22

11:                                               ; preds = %6
  %12 = load ptr, ptr %2, align 8
  %13 = getelementptr inbounds nuw %struct._proto_node, ptr %12, i32 0, i32 5
  %14 = load ptr, ptr %13, align 8
  %15 = getelementptr inbounds nuw %struct.field_info, ptr %14, i32 0, i32 6
  %16 = load i32, ptr %15, align 4
  %17 = or i32 %16, 2
  %18 = load ptr, ptr %2, align 8
  %19 = getelementptr inbounds nuw %struct._proto_node, ptr %18, i32 0, i32 5
  %20 = load ptr, ptr %19, align 8
  %21 = getelementptr inbounds nuw %struct.field_info, ptr %20, i32 0, i32 6
  store i32 %17, ptr %21, align 4
  br label %22

22:                                               ; preds = %11, %6
  br label %23

23:                                               ; preds = %22
  br label %24

24:                                               ; preds = %23, %1
  ret void
}

; Function Attrs: null_pointer_is_valid sspstrong uwtable
define internal i32 @dissect_eid_dtn(ptr noundef %0, ptr noundef %1, ptr noundef %2, ptr noundef %3) #2 {
  %5 = alloca ptr, align 8
  %6 = alloca ptr, align 8
  %7 = alloca ptr, align 8
  %8 = alloca ptr, align 8
  %9 = alloca ptr, align 8
  %10 = alloca ptr, align 8
  %11 = alloca i32, align 4
  %12 = alloca ptr, align 8
  %13 = alloca ptr, align 8
  %14 = alloca ptr, align 8
  %15 = alloca ptr, align 8
  %16 = alloca ptr, align 8
  %17 = alloca ptr, align 8
  %18 = alloca ptr, align 8
  %19 = alloca ptr, align 8
  %20 = alloca ptr, align 8
  store ptr %0, ptr %5, align 8
  store ptr %1, ptr %6, align 8
  store ptr %2, ptr %7, align 8
  store ptr %3, ptr %8, align 8
  call void @llvm.lifetime.start.p0(i64 8, ptr %9) #18
  %21 = load ptr, ptr %8, align 8
  store ptr %21, ptr %9, align 8
  %22 = load ptr, ptr %9, align 8
  %23 = icmp ne ptr %22, null
  br i1 %23, label %24, label %25

24:                                               ; preds = %4
  br label %27

25:                                               ; preds = %4
  call void (ptr, ...) @proto_report_dissector_bug(ptr noundef @.str, ptr noundef @.str.1, i32 noundef 774, ptr noundef @.str.348) #21
  unreachable

26:                                               ; No predecessors!
  br label %27

27:                                               ; preds = %26, %24
  call void @llvm.lifetime.start.p0(i64 8, ptr %10) #18
  %28 = load ptr, ptr %9, align 8
  %29 = getelementptr inbounds nuw %struct.bp_eid_t, ptr %28, i32 0, i32 0
  %30 = load ptr, ptr %29, align 8
  store ptr %30, ptr %10, align 8
  call void @llvm.lifetime.start.p0(i64 4, ptr %11) #18
  store i32 0, ptr %11, align 4
  call void @llvm.lifetime.start.p0(i64 8, ptr %12) #18
  store ptr null, ptr %12, align 8
  call void @llvm.lifetime.start.p0(i64 8, ptr %13) #18
  %31 = load ptr, ptr %6, align 8
  %32 = getelementptr inbounds nuw %struct._packet_info, ptr %31, i32 0, i32 51
  %33 = load ptr, ptr %32, align 8
  %34 = load ptr, ptr %5, align 8
  %35 = call ptr @wscbor_chunk_read(ptr noundef %33, ptr noundef %34, ptr noundef %11)
  store ptr %35, ptr %13, align 8
  %36 = load ptr, ptr %13, align 8
  %37 = getelementptr inbounds nuw %struct.wscbor_chunk_t, ptr %36, i32 0, i32 6
  %38 = load i32, ptr %37, align 8
  switch i32 %38, label %111 [
    i32 0, label %39
    i32 3, label %75
  ]

39:                                               ; preds = %27
  call void @llvm.lifetime.start.p0(i64 8, ptr %14) #18
  %40 = load ptr, ptr %6, align 8
  %41 = getelementptr inbounds nuw %struct._packet_info, ptr %40, i32 0, i32 51
  %42 = load ptr, ptr %41, align 8
  %43 = load ptr, ptr %13, align 8
  %44 = call ptr @wscbor_require_uint64(ptr noundef %42, ptr noundef %43)
  store ptr %44, ptr %14, align 8
  call void @llvm.lifetime.start.p0(i64 8, ptr %15) #18
  %45 = load ptr, ptr %7, align 8
  %46 = load i32, ptr @hf_eid_dtn_ssp_code, align 4
  %47 = load ptr, ptr %6, align 8
  %48 = load ptr, ptr %5, align 8
  %49 = load ptr, ptr %13, align 8
  %50 = load ptr, ptr %14, align 8
  %51 = call ptr @proto_tree_add_cbor_uint64(ptr noundef %45, i32 noundef %46, ptr noundef %47, ptr noundef %48, ptr noundef %49, ptr noundef %50)
  store ptr %51, ptr %15, align 8
  %52 = load ptr, ptr %14, align 8
  %53 = load i64, ptr %52, align 8
  switch i64 %53, label %59 [
    i64 0, label %54
  ]

54:                                               ; preds = %39
  %55 = load ptr, ptr %10, align 8
  %56 = call noalias ptr @wmem_strdup(ptr noundef %55, ptr noundef @.str.349)
  %57 = load ptr, ptr %9, align 8
  %58 = getelementptr inbounds nuw %struct.bp_eid_t, ptr %57, i32 0, i32 3
  store ptr %56, ptr %58, align 8
  br label %63

59:                                               ; preds = %39
  %60 = load ptr, ptr %6, align 8
  %61 = load ptr, ptr %15, align 8
  %62 = call ptr @expert_add_info(ptr noundef %60, ptr noundef %61, ptr noundef @ei_eid_wkssp_unknown)
  br label %63

63:                                               ; preds = %59, %54
  %64 = load ptr, ptr %9, align 8
  %65 = getelementptr inbounds nuw %struct.bp_eid_t, ptr %64, i32 0, i32 3
  %66 = load ptr, ptr %65, align 8
  %67 = icmp ne ptr %66, null
  br i1 %67, label %68, label %74

68:                                               ; preds = %63
  %69 = load ptr, ptr %10, align 8
  %70 = load ptr, ptr %9, align 8
  %71 = getelementptr inbounds nuw %struct.bp_eid_t, ptr %70, i32 0, i32 3
  %72 = load ptr, ptr %71, align 8
  %73 = call noalias ptr (ptr, ptr, ...) @wmem_strdup_printf(ptr noundef %69, ptr noundef @.str.350, ptr noundef %72)
  store ptr %73, ptr %12, align 8
  br label %74

74:                                               ; preds = %68, %63
  call void @llvm.lifetime.end.p0(i64 8, ptr %15) #18
  call void @llvm.lifetime.end.p0(i64 8, ptr %14) #18
  br label %135

75:                                               ; preds = %27
  call void @llvm.lifetime.start.p0(i64 8, ptr %16) #18
  %76 = load ptr, ptr %6, align 8
  %77 = getelementptr inbounds nuw %struct._packet_info, ptr %76, i32 0, i32 51
  %78 = load ptr, ptr %77, align 8
  %79 = load ptr, ptr %13, align 8
  %80 = call ptr @wscbor_require_tstr(ptr noundef %78, ptr noundef %79)
  store ptr %80, ptr %16, align 8
  %81 = load ptr, ptr %7, align 8
  %82 = load i32, ptr @hf_eid_dtn_ssp_text, align 4
  %83 = load ptr, ptr %6, align 8
  %84 = load ptr, ptr %5, align 8
  %85 = load ptr, ptr %13, align 8
  %86 = call ptr @proto_tree_add_cbor_tstr(ptr noundef %81, i32 noundef %82, ptr noundef %83, ptr noundef %84, ptr noundef %85)
  %87 = load ptr, ptr %10, align 8
  %88 = load ptr, ptr %16, align 8
  %89 = call noalias ptr (ptr, ptr, ...) @wmem_strdup_printf(ptr noundef %87, ptr noundef @.str.350, ptr noundef %88)
  store ptr %89, ptr %12, align 8
  call void @llvm.lifetime.start.p0(i64 8, ptr %17) #18
  %90 = load ptr, ptr %16, align 8
  %91 = call ptr @strrchr(ptr noundef %90, i32 noundef 47) #20
  store ptr %91, ptr %17, align 8
  %92 = icmp ne ptr %91, null
  br i1 %92, label %93, label %100

93:                                               ; preds = %75
  %94 = load ptr, ptr %10, align 8
  %95 = load ptr, ptr %17, align 8
  %96 = getelementptr i8, ptr %95, i64 1
  %97 = call noalias ptr @wmem_strdup(ptr noundef %94, ptr noundef %96)
  %98 = load ptr, ptr %9, align 8
  %99 = getelementptr inbounds nuw %struct.bp_eid_t, ptr %98, i32 0, i32 4
  store ptr %97, ptr %99, align 8
  br label %106

100:                                              ; preds = %75
  %101 = load ptr, ptr %10, align 8
  %102 = load ptr, ptr %16, align 8
  %103 = call noalias ptr @wmem_strdup(ptr noundef %101, ptr noundef %102)
  %104 = load ptr, ptr %9, align 8
  %105 = getelementptr inbounds nuw %struct.bp_eid_t, ptr %104, i32 0, i32 3
  store ptr %103, ptr %105, align 8
  br label %106

106:                                              ; preds = %100, %93
  %107 = load ptr, ptr %6, align 8
  %108 = getelementptr inbounds nuw %struct._packet_info, ptr %107, i32 0, i32 51
  %109 = load ptr, ptr %108, align 8
  %110 = load ptr, ptr %16, align 8
  call void @wmem_free(ptr noundef %109, ptr noundef %110)
  call void @llvm.lifetime.end.p0(i64 8, ptr %17) #18
  call void @llvm.lifetime.end.p0(i64 8, ptr %16) #18
  br label %135

111:                                              ; preds = %27
  %112 = load ptr, ptr %6, align 8
  %113 = load ptr, ptr %7, align 8
  %114 = call ptr @proto_tree_get_parent(ptr noundef %113)
  %115 = call ptr @expert_add_info(ptr noundef %112, ptr noundef %114, ptr noundef @ei_eid_ssp_type_invalid)
  %116 = load ptr, ptr %13, align 8
  %117 = getelementptr inbounds nuw %struct.wscbor_chunk_t, ptr %116, i32 0, i32 1
  %118 = load i32, ptr %117, align 8
  store i32 %118, ptr %11, align 4
  %119 = load ptr, ptr %6, align 8
  %120 = getelementptr inbounds nuw %struct._packet_info, ptr %119, i32 0, i32 51
  %121 = load ptr, ptr %120, align 8
  %122 = load ptr, ptr %5, align 8
  %123 = call zeroext i1 @wscbor_skip_next_item(ptr noundef %121, ptr noundef %122, ptr noundef %11)
  call void @llvm.lifetime.start.p0(i64 8, ptr %18) #18
  %124 = load ptr, ptr %5, align 8
  %125 = load ptr, ptr %13, align 8
  %126 = getelementptr inbounds nuw %struct.wscbor_chunk_t, ptr %125, i32 0, i32 1
  %127 = load i32, ptr %126, align 8
  %128 = load i32, ptr %11, align 4
  %129 = call ptr @tvb_new_subset_length(ptr noundef %124, i32 noundef %127, i32 noundef %128)
  store ptr %129, ptr %18, align 8
  %130 = load ptr, ptr @handle_cbor, align 8
  %131 = load ptr, ptr %18, align 8
  %132 = load ptr, ptr %6, align 8
  %133 = load ptr, ptr %7, align 8
  %134 = call i32 @call_dissector(ptr noundef %130, ptr noundef %131, ptr noundef %132, ptr noundef %133)
  call void @llvm.lifetime.end.p0(i64 8, ptr %18) #18
  br label %135

135:                                              ; preds = %111, %106, %74
  %136 = load ptr, ptr %9, align 8
  %137 = getelementptr inbounds nuw %struct.bp_eid_t, ptr %136, i32 0, i32 3
  %138 = load ptr, ptr %137, align 8
  %139 = icmp ne ptr %138, null
  br i1 %139, label %140, label %150

140:                                              ; preds = %135
  call void @llvm.lifetime.start.p0(i64 8, ptr %19) #18
  %141 = load ptr, ptr %7, align 8
  %142 = load i32, ptr @hf_eid_dtn_wkssp, align 4
  %143 = load ptr, ptr %5, align 8
  %144 = load i32, ptr %11, align 4
  %145 = load ptr, ptr %9, align 8
  %146 = getelementptr inbounds nuw %struct.bp_eid_t, ptr %145, i32 0, i32 3
  %147 = load ptr, ptr %146, align 8
  %148 = call ptr @proto_tree_add_string(ptr noundef %141, i32 noundef %142, ptr noundef %143, i32 noundef 0, i32 noundef %144, ptr noundef %147)
  store ptr %148, ptr %19, align 8
  %149 = load ptr, ptr %19, align 8
  call void @proto_item_set_generated(ptr noundef %149)
  call void @llvm.lifetime.end.p0(i64 8, ptr %19) #18
  br label %150

150:                                              ; preds = %140, %135
  %151 = load ptr, ptr %9, align 8
  %152 = getelementptr inbounds nuw %struct.bp_eid_t, ptr %151, i32 0, i32 4
  %153 = load ptr, ptr %152, align 8
  %154 = icmp ne ptr %153, null
  br i1 %154, label %155, label %165

155:                                              ; preds = %150
  call void @llvm.lifetime.start.p0(i64 8, ptr %20) #18
  %156 = load ptr, ptr %7, align 8
  %157 = load i32, ptr @hf_eid_dtn_serv, align 4
  %158 = load ptr, ptr %5, align 8
  %159 = load i32, ptr %11, align 4
  %160 = load ptr, ptr %9, align 8
  %161 = getelementptr inbounds nuw %struct.bp_eid_t, ptr %160, i32 0, i32 4
  %162 = load ptr, ptr %161, align 8
  %163 = call ptr @proto_tree_add_string(ptr noundef %156, i32 noundef %157, ptr noundef %158, i32 noundef 0, i32 noundef %159, ptr noundef %162)
  store ptr %163, ptr %20, align 8
  %164 = load ptr, ptr %20, align 8
  call void @proto_item_set_generated(ptr noundef %164)
  call void @llvm.lifetime.end.p0(i64 8, ptr %20) #18
  br label %165

165:                                              ; preds = %155, %150
  %166 = load ptr, ptr %12, align 8
  %167 = icmp ne ptr %166, null
  br i1 %167, label %168, label %176

168:                                              ; preds = %165
  %169 = load ptr, ptr %9, align 8
  %170 = getelementptr inbounds nuw %struct.bp_eid_t, ptr %169, i32 0, i32 2
  %171 = load ptr, ptr %12, align 8
  %172 = call i64 @strlen(ptr noundef %171) #20
  %173 = trunc i64 %172 to i32
  %174 = add i32 %173, 1
  %175 = load ptr, ptr %12, align 8
  call void @set_address(ptr noundef %170, i32 noundef 7, i32 noundef %174, ptr noundef %175)
  br label %176

176:                                              ; preds = %168, %165
  %177 = load i32, ptr %11, align 4
  call void @llvm.lifetime.end.p0(i64 8, ptr %13) #18
  call void @llvm.lifetime.end.p0(i64 8, ptr %12) #18
  call void @llvm.lifetime.end.p0(i64 4, ptr %11) #18
  call void @llvm.lifetime.end.p0(i64 8, ptr %10) #18
  call void @llvm.lifetime.end.p0(i64 8, ptr %9) #18
  ret i32 %177
}