; Function Attrs: null_pointer_is_valid sspstrong uwtable
define internal i32 @dissect_eid_dtn(ptr noundef %0, ptr noundef %1, ptr noundef %2, ptr noundef captures(address_is_null) %3) #2 {
  %5 = alloca i32, align 4
  %.not = icmp eq ptr %3, null
  br i1 %.not, label %6, label %7

6:                                                ; preds = %4
  tail call void (ptr, ...) @proto_report_dissector_bug(ptr noundef nonnull @.str, ptr noundef nonnull @.str.1, i32 noundef 774, ptr noundef nonnull @.str.348) #17
  unreachable

7:                                                ; preds = %4
  %8 = load ptr, ptr %3, align 8
  call void @llvm.lifetime.start.p0(i64 4, ptr nonnull %5) #19
  store i32 0, ptr %5, align 4
  %9 = getelementptr inbounds nuw i8, ptr %1, i64 408
  %10 = load ptr, ptr %9, align 8
  %11 = call ptr @wscbor_chunk_read(ptr noundef %10, ptr noundef %0, ptr noundef nonnull %5)
  %12 = getelementptr inbounds nuw i8, ptr %11, i64 40
  %13 = load i32, ptr %12, align 8
  switch i32 %13, label %40 [
    i32 0, label %14
    i32 3, label %29
  ]

14:                                               ; preds = %7
  %15 = load ptr, ptr %9, align 8
  %16 = call ptr @wscbor_require_uint64(ptr noundef %15, ptr noundef %11)
  %17 = load i32, ptr @hf_eid_dtn_ssp_code, align 4
  %18 = call ptr @proto_tree_add_cbor_uint64(ptr noundef %2, i32 noundef %17, ptr noundef %1, ptr noundef %0, ptr noundef %11, ptr noundef %16)
  %19 = load i64, ptr %16, align 8
  %cond = icmp eq i64 %19, 0
  %20 = getelementptr inbounds nuw i8, ptr %3, i64 40
  br i1 %cond, label %21, label %23

21:                                               ; preds = %14
  %22 = call noalias ptr @wmem_strdup(ptr noundef %8, ptr noundef nonnull @.str.349)
  store ptr %22, ptr %20, align 8
  br label %25

23:                                               ; preds = %14
  %24 = call ptr @expert_add_info(ptr noundef %1, ptr noundef %18, ptr noundef nonnull @ei_eid_wkssp_unknown)
  %.pre = load ptr, ptr %20, align 8
  br label %25

25:                                               ; preds = %23, %21
  %26 = phi ptr [ %.pre, %23 ], [ %22, %21 ]
  %.not68 = icmp eq ptr %26, null
  br i1 %.not68, label %52, label %27

27:                                               ; preds = %25
  %28 = call noalias ptr (ptr, ptr, ...) @wmem_strdup_printf(ptr noundef %8, ptr noundef nonnull @.str.350, ptr noundef nonnull %26)
  br label %52

29:                                               ; preds = %7
  %30 = load ptr, ptr %9, align 8
  %31 = call ptr @wscbor_require_tstr(ptr noundef %30, ptr noundef %11)
  %32 = load i32, ptr @hf_eid_dtn_ssp_text, align 4
  %33 = call ptr @proto_tree_add_cbor_tstr(ptr noundef %2, i32 noundef %32, ptr noundef %1, ptr noundef %0, ptr noundef %11)
  %34 = call noalias ptr (ptr, ptr, ...) @wmem_strdup_printf(ptr noundef %8, ptr noundef nonnull @.str.350, ptr noundef %31)
  %35 = call ptr @strrchr(ptr noundef %31, i32 noundef 47) #20
  %.not67 = icmp eq ptr %35, null
  %36 = getelementptr i8, ptr %35, i64 1
  %.sink77 = select i1 %.not67, ptr %31, ptr %36
  %.sink76 = select i1 %.not67, i64 40, i64 48
  %37 = call noalias ptr @wmem_strdup(ptr noundef %8, ptr noundef %.sink77)
  %38 = getelementptr inbounds nuw i8, ptr %3, i64 %.sink76
  store ptr %37, ptr %38, align 8
  %39 = load ptr, ptr %9, align 8
  call void @wmem_free(ptr noundef %39, ptr noundef %31)
  br label %52

40:                                               ; preds = %7
  %41 = call ptr @proto_tree_get_parent(ptr noundef %2)
  %42 = call ptr @expert_add_info(ptr noundef %1, ptr noundef %41, ptr noundef nonnull @ei_eid_ssp_type_invalid)
  %43 = getelementptr inbounds nuw i8, ptr %11, i64 8
  %44 = load i32, ptr %43, align 8
  store i32 %44, ptr %5, align 4
  %45 = load ptr, ptr %9, align 8
  %46 = call zeroext i1 @wscbor_skip_next_item(ptr noundef %45, ptr noundef %0, ptr noundef nonnull %5)
  %47 = load i32, ptr %43, align 8
  %48 = load i32, ptr %5, align 4
  %49 = call ptr @tvb_new_subset_length(ptr noundef %0, i32 noundef %47, i32 noundef %48)
  %50 = load ptr, ptr @handle_cbor, align 8
  %51 = call i32 @call_dissector(ptr noundef %50, ptr noundef %49, ptr noundef %1, ptr noundef %2)
  br label %52

52:                                               ; preds = %25, %27, %40, %29
  %.1 = phi ptr [ null, %40 ], [ %34, %29 ], [ %28, %27 ], [ null, %25 ]
  %53 = getelementptr inbounds nuw i8, ptr %3, i64 40
  %54 = load ptr, ptr %53, align 8
  %.not69 = icmp eq ptr %54, null
  br i1 %.not69, label %proto_item_set_generated.exit, label %55

55:                                               ; preds = %52
  %56 = load i32, ptr @hf_eid_dtn_wkssp, align 4
  %57 = load i32, ptr %5, align 4
  %58 = call ptr @proto_tree_add_string(ptr noundef %2, i32 noundef %56, ptr noundef %0, i32 noundef 0, i32 noundef %57, ptr noundef nonnull %54)
  %.not.i = icmp eq ptr %58, null
  br i1 %.not.i, label %proto_item_set_generated.exit, label %59

59:                                               ; preds = %55
  %60 = getelementptr inbounds nuw i8, ptr %58, i64 40
  %61 = load ptr, ptr %60, align 8
  %.not5.i = icmp eq ptr %61, null
  br i1 %.not5.i, label %proto_item_set_generated.exit, label %62

62:                                               ; preds = %59
  %63 = getelementptr inbounds nuw i8, ptr %61, i64 28
  %64 = load i32, ptr %63, align 4
  %65 = or i32 %64, 2
  store i32 %65, ptr %63, align 4
  br label %proto_item_set_generated.exit

proto_item_set_generated.exit:                    ; preds = %62, %59, %55, %52
  %66 = getelementptr inbounds nuw i8, ptr %3, i64 48
  %67 = load ptr, ptr %66, align 8
  %.not70 = icmp eq ptr %67, null
  br i1 %.not70, label %proto_item_set_generated.exit74, label %68

68:                                               ; preds = %proto_item_set_generated.exit
  %69 = load i32, ptr @hf_eid_dtn_serv, align 4
  %70 = load i32, ptr %5, align 4
  %71 = call ptr @proto_tree_add_string(ptr noundef %2, i32 noundef %69, ptr noundef %0, i32 noundef 0, i32 noundef %70, ptr noundef nonnull %67)
  %.not.i72 = icmp eq ptr %71, null
  br i1 %.not.i72, label %proto_item_set_generated.exit74, label %72

72:                                               ; preds = %68
  %73 = getelementptr inbounds nuw i8, ptr %71, i64 40
  %74 = load ptr, ptr %73, align 8
  %.not5.i73 = icmp eq ptr %74, null
  br i1 %.not5.i73, label %proto_item_set_generated.exit74, label %75

75:                                               ; preds = %72
  %76 = getelementptr inbounds nuw i8, ptr %74, i64 28
  %77 = load i32, ptr %76, align 4
  %78 = or i32 %77, 2
  store i32 %78, ptr %76, align 4
  br label %proto_item_set_generated.exit74

proto_item_set_generated.exit74:                  ; preds = %75, %72, %68, %proto_item_set_generated.exit
  %.not71 = icmp eq ptr %.1, null
  br i1 %.not71, label %87, label %79

79:                                               ; preds = %proto_item_set_generated.exit74
  %80 = getelementptr inbounds nuw i8, ptr %3, i64 16
  %81 = call i64 @strlen(ptr noundef nonnull dereferenceable(1) %.1) #20
  %82 = trunc i64 %81 to i32
  %83 = add i32 %82, 1
  store i32 7, ptr %80, align 8
  %84 = getelementptr inbounds nuw i8, ptr %3, i64 20
  store i32 %83, ptr %84, align 4
  %85 = getelementptr inbounds nuw i8, ptr %3, i64 24
  store ptr %.1, ptr %85, align 8
  %86 = getelementptr inbounds nuw i8, ptr %3, i64 32
  store ptr null, ptr %86, align 8
  br label %87

87:                                               ; preds = %79, %proto_item_set_generated.exit74
  %88 = load i32, ptr %5, align 4
  call void @llvm.lifetime.end.p0(i64 4, ptr nonnull %5) #19
  ret i32 %88
}